(lp0
F0.15888240200166806
aF0.6501251042535446
aF0.7214345287739783
aF0.7710592160133445
aF0.8081734778982486
aF0.8390325271059216
aF0.8586321934945789
aF0.8794829024186822
aF0.8894912427022519
aF0.8949124270225187
aF0.8990825688073395
aF0.9015846538782318
aF0.9061718098415346
a.