(dp0
S'ascent'
p1
(lp2
F0.15262718932443703
aF0.49124270225187655
aF0.5825688073394495
aF0.6155129274395329
aF0.6492910758965805
aF0.6509591326105088
aF0.6563803169307757
aF0.6563803169307757
aF0.6572143452877398
aF0.658465387823186
aF0.6572143452877398
asS'descent'
p3
(lp4
F0.15262718932443703
aF0.4662218515429525
aF0.5850708924103419
aF0.6130108423686406
aF0.6492910758965805
aF0.6497080900750626
aF0.6622185154295246
aF0.6630525437864887
aF0.6638865721434529
as.